; Function Attrs: mustprogress nounwind uwtable
define hidden noundef ptr @_ZN10Management16initialize_klassEP5KlassP10JavaThread(ptr noundef %0, ptr noundef %1) local_unnamed_addr #0 align 2 {
  %3 = load ptr, ptr %0, align 8
  %4 = getelementptr inbounds i8, ptr %3, i64 168
  %5 = load ptr, ptr %4, align 8
  %6 = tail call noundef zeroext i1 %5(ptr noundef nonnull align 8 dereferenceable(464) %0) #17
  br i1 %6, label %7, label %13

7:                                                ; preds = %2
  %8 = load ptr, ptr %0, align 8
  %9 = getelementptr inbounds i8, ptr %8, i64 176
  %10 = load ptr, ptr %9, align 8
  tail call void %10(ptr noundef nonnull align 8 dereferenceable(464) %0, ptr noundef %1) #17
  %11 = getelementptr inbounds i8, ptr %1, i64 8
  %12 = load ptr, ptr %11, align 8
  %.not = icmp eq ptr %12, null
  br i1 %.not, label %13, label %14

13:                                               ; preds = %7, %2
  br label %14

14:                                               ; preds = %7, %13
  %.0 = phi ptr [ %0, %13 ], [ null, %7 ]
  ret ptr %.0
}